Certificate:
    Data:
        Version: 1 (0x0)
        Serial Number: 1 (0x1)
        Signature Algorithm: ecdsa-with-SHA256
        Issuer: C=CN, ST=TEST, L=TEST, O=TEST, OU=TEST, CN=testca.test.com
        Validity
            Not Before: Mar 25 08:23:54 2024 GMT
            Not After : Mar 23 08:23:54 2034 GMT
        Subject: C=CN, ST=TEST, L=TEST, O=TEST, OU=TEST, CN=testserver.test.com
        Subject Public Key Info:
            Public Key Algorithm: id-ecPublicKey
                Public-Key: (256 bit)
                pub:
                    04:e8:a8:ab:83:68:9e:0b:32:0e:4b:21:65:ce:2c:
                    35:db:b7:1d:5d:2d:86:05:3b:97:ea:fe:b9:80:2f:
                    0b:82:e6:47:df:cb:7c:09:fe:12:7f:0a:8d:54:96:
                    ca:82:b6:b8:72:14:a5:d5:5d:7b:b9:e6:25:65:bc:
                    32:b3:83:19:c3
                ASN1 OID: prime256v1
                NIST CURVE: P-256
    Signature Algorithm: ecdsa-with-SHA256
    Signature Value:
        30:45:02:21:00:e5:ff:6f:8e:9f:64:6b:46:89:eb:fe:12:8f:
        cc:e3:10:48:13:b4:0b:78:45:f3:34:cc:3c:3f:92:39:8d:55:
        c4:02:20:58:52:68:67:b7:c5:32:d1:09:fd:54:03:80:a2:ea:
        39:a3:72:55:54:b0:3f:8c:65:51:7f:69:e7:fb:b8:13:49
-----BEGIN CERTIFICATE-----
MIIBsjCCAVgCAQEwCgYIKoZIzj0EAwIwYzELMAkGA1UEBhMCQ04xDTALBgNVBAgM
BFRFU1QxDTALBgNVBAcMBFRFU1QxDTALBgNVBAoMBFRFU1QxDTALBgNVBAsMBFRF
U1QxGDAWBgNVBAMMD3Rlc3RjYS50ZXN0LmNvbTAeFw0yNDAzMjUwODIzNTRaFw0z
NDAzMjMwODIzNTRaMGcxCzAJBgNVBAYTAkNOMQ0wCwYDVQQIDARURVNUMQ0wCwYD
VQQHDARURVNUMQ0wCwYDVQQKDARURVNUMQ0wCwYDVQQLDARURVNUMRwwGgYDVQQD
DBN0ZXN0c2VydmVyLnRlc3QuY29tMFkwEwYHKoZIzj0CAQYIKoZIzj0DAQcDQgAE
6Kirg2ieCzIOSyFlziw127cdXS2GBTuX6v65gC8LguZH38t8Cf4SfwqNVJbKgra4
chSl1V17ueYlZbwys4MZwzAKBggqhkjOPQQDAgNIADBFAiEA5f9vjp9ka0aJ6/4S
j8zjEEgTtAt4RfM0zDw/kjmNVcQCIFhSaGe3xTLRCf1UA4Ci6jmjclVUsD+MZVF/
aef7uBNJ
-----END CERTIFICATE-----
