Certificate:
    Data:
        Version: 1 (0x0)
        Serial Number: 2 (0x2)
        Signature Algorithm: ecdsa-with-SHA256
        Issuer: C=CN, ST=TEST, L=TEST, O=TEST, OU=TEST, CN=testca.test.com
        Validity
            Not Before: Mar 25 08:23:58 2024 GMT
            Not After : Mar 23 08:23:58 2034 GMT
        Subject: C=CN, ST=TEST, L=TEST, O=TEST, OU=TEST, CN=testclient.test.com
        Subject Public Key Info:
            Public Key Algorithm: id-ecPublicKey
                Public-Key: (256 bit)
                pub:
                    04:dc:f0:69:d2:54:09:2c:f4:f7:ce:41:a3:1a:0f:
                    d8:8e:52:6a:43:40:df:66:11:b0:c2:c5:c3:0a:22:
                    53:25:ae:fc:fd:be:19:03:48:5d:7c:08:33:ae:e9:
                    02:bb:34:d2:34:16:98:ec:95:87:d1:24:e3:3f:46:
                    17:87:a8:ac:b1
                ASN1 OID: prime256v1
                NIST CURVE: P-256
    Signature Algorithm: ecdsa-with-SHA256
    Signature Value:
        30:45:02:21:00:c6:25:90:fb:5d:d3:c3:ae:f5:95:cf:e9:e2:
        9e:62:f3:57:dd:2b:5f:59:9c:4d:de:cb:c7:0d:ee:a8:b0:1d:
        21:02:20:7e:59:21:3b:4a:52:f4:02:7a:a9:a7:47:43:35:1d:
        58:0b:57:a8:e0:2a:9c:0b:31:9e:d4:a4:2e:46:74:fd:ff
-----BEGIN CERTIFICATE-----
MIIBsjCCAVgCAQIwCgYIKoZIzj0EAwIwYzELMAkGA1UEBhMCQ04xDTALBgNVBAgM
BFRFU1QxDTALBgNVBAcMBFRFU1QxDTALBgNVBAoMBFRFU1QxDTALBgNVBAsMBFRF
U1QxGDAWBgNVBAMMD3Rlc3RjYS50ZXN0LmNvbTAeFw0yNDAzMjUwODIzNThaFw0z
NDAzMjMwODIzNThaMGcxCzAJBgNVBAYTAkNOMQ0wCwYDVQQIDARURVNUMQ0wCwYD
VQQHDARURVNUMQ0wCwYDVQQKDARURVNUMQ0wCwYDVQQLDARURVNUMRwwGgYDVQQD
DBN0ZXN0Y2xpZW50LnRlc3QuY29tMFkwEwYHKoZIzj0CAQYIKoZIzj0DAQcDQgAE
3PBp0lQJLPT3zkGjGg/YjlJqQ0DfZhGwwsXDCiJTJa78/b4ZA0hdfAgzrukCuzTS
NBaY7JWH0STjP0YXh6issTAKBggqhkjOPQQDAgNIADBFAiEAxiWQ+13Tw671lc/p
4p5i81fdK19ZnE3ey8cN7qiwHSECIH5ZITtKUvQCeqmnR0M1HVgLV6jgKpwLMZ7U
pC5GdP3/
-----END CERTIFICATE-----
